ccopy_reg
_reconstructor
p1
(cpandas.core.frame
DataFrame
p2
c__builtin__
object
p3
NtRp4
(dp5
S'_metadata'
p6
(lp7
sS'_typ'
p8
S'dataframe'
p9
sS'_data'
p10
g1
(cpandas.core.internals
BlockManager
p11
g3
NtRp12
((lp13
cpandas.core.index
_new_Index
p14
(cpandas.core.index
Index
p15
(dp16
S'data'
p17
cnumpy.core.multiarray
_reconstruct
p18
(cnumpy
ndarray
p19
(I0
tS'b'
tRp20
(I1
(I6
tcnumpy
dtype
p21
(S'O8'
I0
I1
tRp22
(I3
S'|'
NNNI-1
I-1
I63
tbI00
(lp23
S'gesture'
p24
aS'location'
p25
aS'scene'
p26
aS'policy'
p27
aS'myfeature'
p28
aS'otfeature'
p29
atbsS'name'
p30
NstRp31
ag14
(g15
(dp32
g17
g18
(g19
(I0
tS'b'
tRp33
(I1
(I0
tg22
I00
(ltbsg30
S'username'
p34
stRp35
a(lp36
g18
(g19
(I0
tS'b'
tRp37
(I1
(I6
I0
tg22
I00
(ltba(lp38
g14
(g15
(dp39
g17
g18
(g19
(I0
tS'b'
tRp40
(I1
(I6
tg22
I00
(lp41
g24
ag25
ag26
ag27
ag28
ag29
atbsg30
NstRp42
a(dp43
S'0.14.1'
p44
(dp45
S'axes'
p46
g13
sS'blocks'
p47
(lp48
(dp49
S'mgr_locs'
p50
c__builtin__
slice
p51
(I0
I6
I1
tRp52
sS'values'
p53
g37
sasstbsb.