ccopy_reg
_reconstructor
p1
(cpandas.core.frame
DataFrame
p2
c__builtin__
object
p3
NtRp4
(dp5
S'_metadata'
p6
(lp7
sS'_typ'
p8
S'dataframe'
p9
sS'_data'
p10
g1
(cpandas.core.internals
BlockManager
p11
g3
NtRp12
((lp13
cpandas.core.index
_new_Index
p14
(cpandas.core.index
Index
p15
(dp16
S'data'
p17
cnumpy.core.multiarray
_reconstruct
p18
(cnumpy
ndarray
p19
(I0
tS'b'
tRp20
(I1
(I6
tcnumpy
dtype
p21
(S'O8'
I0
I1
tRp22
(I3
S'|'
NNNI-1
I-1
I63
tbI00
(lp23
S'gesture'
p24
aS'location'
p25
aS'scene'
p26
aS'policy'
p27
aS'myfeature'
p28
aS'otfeature'
p29
atbsS'name'
p30
NstRp31
ag14
(g15
(dp32
g17
g18
(g19
(I0
tS'b'
tRp33
(I1
(I1
tg22
I00
(lp34
S'zerry'
p35
atbsg30
S'username'
p36
stRp37
a(lp38
g18
(g19
(I0
tS'b'
tRp39
(I1
(I6
I1
tg22
I00
(lp40
(I01
I01
tp41
a(F22.333333
F114.262867
tp42
a(I0
I3
I6
I2
tp43
aI1
ag18
(g19
(I0
tS'b'
tRp44
(I1
(I0
I256
tg21
(S'f4'
I0
I1
tRp45
(I3
S'<'
NNNI-1
I-1
I0
tbI00
S''
tbag18
(g19
(I0
tS'b'
tRp46
(I1
(I0
I256
tg45
I00
S''
tbatba(lp47
g14
(g15
(dp48
g17
g18
(g19
(I0
tS'b'
tRp49
(I1
(I6
tg22
I00
(lp50
g24
ag25
ag26
ag27
ag28
ag29
atbsg30
NstRp51
a(dp52
S'0.14.1'
p53
(dp54
S'axes'
p55
g13
sS'blocks'
p56
(lp57
(dp58
S'mgr_locs'
p59
c__builtin__
slice
p60
(I0
I6
I1
tRp61
sS'values'
p62
g39
sasstbsb.